target datalayout = "e-m:e-p270:32:32-p271:32:32-p272:64:64-i64:64-i128:128-f80:128-n8:16:32:64-S128"
target triple = "x86_64-pc-linux-gnu"

%struct.AVProbeData = type { ptr, ptr, i32, ptr }

@.str.2 = private unnamed_addr constant [4 x i8] c"FSB\00", align 1

; Function Attrs: nounwind uwtable
define internal i32 @fsb_probe(ptr noundef %0) #0 {
  %2 = alloca i32, align 4
  %3 = alloca ptr, align 8
  store ptr %0, ptr %3, align 8, !tbaa !4
  %4 = load ptr, ptr %3, align 8, !tbaa !4
  %5 = getelementptr inbounds nuw %struct.AVProbeData, ptr %4, i32 0, i32 1
  %6 = load ptr, ptr %5, align 8, !tbaa !9
  %7 = call i32 @memcmp(ptr noundef %6, ptr noundef @.str.2, i64 noundef 3) #7
  %8 = icmp ne i32 %7, 0
  br i1 %8, label %27, label %9

9:                                                ; preds = %1
  %10 = load ptr, ptr %3, align 8, !tbaa !4
  %11 = getelementptr inbounds nuw %struct.AVProbeData, ptr %10, i32 0, i32 1
  %12 = load ptr, ptr %11, align 8, !tbaa !9
  %13 = getelementptr inbounds i8, ptr %12, i64 3
  %14 = load i8, ptr %13, align 1, !tbaa !13
  %15 = zext i8 %14 to i32
  %16 = sub nsw i32 %15, 48
  %17 = icmp slt i32 %16, 1
  br i1 %17, label %27, label %18

18:                                               ; preds = %9
  %19 = load ptr, ptr %3, align 8, !tbaa !4
  %20 = getelementptr inbounds nuw %struct.AVProbeData, ptr %19, i32 0, i32 1
  %21 = load ptr, ptr %20, align 8, !tbaa !9
  %22 = getelementptr inbounds i8, ptr %21, i64 3
  %23 = load i8, ptr %22, align 1, !tbaa !13
  %24 = zext i8 %23 to i32
  %25 = sub nsw i32 %24, 48
  %26 = icmp sgt i32 %25, 5
  br i1 %26, label %27, label %28

27:                                               ; preds = %18, %9, %1
  store i32 0, ptr %2, align 4
  br label %37

28:                                               ; preds = %18
  %29 = load ptr, ptr %3, align 8, !tbaa !4
  %30 = getelementptr inbounds nuw %struct.AVProbeData, ptr %29, i32 0, i32 1
  %31 = load ptr, ptr %30, align 8, !tbaa !9
  %32 = getelementptr inbounds i8, ptr %31, i64 4
  %33 = load i32, ptr %32, align 1, !tbaa !13
  %34 = icmp ne i32 %33, 1
  br i1 %34, label %35, label %36

35:                                               ; preds = %28
  store i32 0, ptr %2, align 4
  br label %37

36:                                               ; preds = %28
  store i32 100, ptr %2, align 4
  br label %37

37:                                               ; preds = %36, %35, %27
  %38 = load i32, ptr %2, align 4
  ret i32 %38
}