; Function Attrs: mustprogress nofree norecurse nounwind willreturn memory(read, inaccessiblemem: none) uwtable
define internal range(i32 0, 101) i32 @fsb_probe(ptr noundef readonly captures(none) %0) #0 {
  %2 = getelementptr inbounds nuw i8, ptr %0, i64 8
  %3 = load ptr, ptr %2, align 8, !tbaa !4
  %bcmp = tail call i32 @bcmp(ptr noundef nonnull dereferenceable(3) %3, ptr noundef nonnull dereferenceable(3) @.str.2, i64 3)
  %.not = icmp eq i32 %bcmp, 0
  br i1 %.not, label %4, label %11

4:                                                ; preds = %1
  %5 = getelementptr inbounds nuw i8, ptr %3, i64 3
  %6 = load i8, ptr %5, align 1, !tbaa !11
  %7 = add i8 %6, -54
  %or.cond = icmp ult i8 %7, -5
  br i1 %or.cond, label %11, label %8

8:                                                ; preds = %4
  %9 = getelementptr inbounds nuw i8, ptr %3, i64 4
  %10 = load i32, ptr %9, align 1, !tbaa !11
  %.not5 = icmp eq i32 %10, 1
  %. = select i1 %.not5, i32 100, i32 0
  br label %11

11:                                               ; preds = %8, %1, %4
  %.0 = phi i32 [ 0, %4 ], [ 0, %1 ], [ %., %8 ]
  ret i32 %.0
}